; Function Attrs: mustprogress uwtable
define noundef zeroext i1 @_ZN4base14PickleIterator12ReadString16EPNSt7__cxx1112basic_stringItNS_20string16_char_traitsESaItEEE(ptr noundef nonnull align 8 captures(none) dereferenceable(24) %0, ptr noundef %1) local_unnamed_addr #0 align 2 {
  %3 = getelementptr inbounds nuw i8, ptr %0, i64 16
  %4 = load i64, ptr %3, align 8, !tbaa !22
  %5 = getelementptr inbounds nuw i8, ptr %0, i64 8
  %6 = load i64, ptr %5, align 8, !tbaa !21
  %7 = sub i64 %4, %6
  %8 = icmp ult i64 %7, 4
  %9 = load ptr, ptr %0, align 8
  %10 = add i64 %6, 4
  %storemerge.i.i.i = select i1 %8, i64 %4, i64 %10
  store i64 %storemerge.i.i.i, ptr %5, align 8, !tbaa !21
  %.not.i.i.not13 = icmp eq ptr %9, null
  %.not.i.i.not = select i1 %8, i1 true, i1 %.not.i.i.not13
  br i1 %.not.i.i.not, label %_ZN4base14PickleIterator7ReadIntEPi.exit, label %11

11:                                               ; preds = %2
  %12 = getelementptr inbounds nuw i8, ptr %9, i64 %6
  %13 = load i32, ptr %12, align 4, !tbaa !27
  %14 = sext i32 %13 to i64
  %15 = shl nsw i64 %14, 1
  %16 = add nsw i64 %15, 2147483648
  %.not.i = icmp ult i64 %16, 4294967296
  br i1 %.not.i, label %17, label %_ZN4base14PickleIterator7ReadIntEPi.exit

17:                                               ; preds = %11
  %18 = and i32 %13, 1073741824
  %.not7.i = icmp eq i32 %18, 0
  br i1 %.not7.i, label %19, label %._crit_edge.i.i

19:                                               ; preds = %17
  %20 = sub i64 %4, %10
  %21 = icmp ult i64 %20, %15
  br i1 %21, label %._crit_edge.i.i, label %_ZN4base14PickleIterator24GetReadPointerAndAdvanceEim.exit

._crit_edge.i.i:                                  ; preds = %19, %17
  store i64 %4, ptr %5, align 8, !tbaa !21
  br label %_ZN4base14PickleIterator7ReadIntEPi.exit

_ZN4base14PickleIterator24GetReadPointerAndAdvanceEim.exit: ; preds = %19
  %22 = add nuw nsw i64 %15, 3
  %23 = and i64 %22, 4294967292
  %24 = icmp ult i64 %20, %23
  %25 = add i64 %23, %10
  %storemerge.i.i.i6 = select i1 %24, i64 %4, i64 %25
  store i64 %storemerge.i.i.i6, ptr %5, align 8, !tbaa !21
  %26 = getelementptr inbounds nuw i8, ptr %9, i64 %10
  %27 = getelementptr inbounds nuw i8, ptr %1, i64 8
  %28 = load i64, ptr %27, align 8, !tbaa !35
  %29 = tail call noundef nonnull align 8 dereferenceable(32) ptr @_ZNSt7__cxx1112basic_stringItN4base20string16_char_traitsESaItEE10_M_replaceEmmPKtm(ptr noundef nonnull align 8 dereferenceable(32) %1, i64 noundef 0, i64 noundef %28, ptr noundef nonnull %26, i64 noundef %14)
  br label %_ZN4base14PickleIterator7ReadIntEPi.exit

_ZN4base14PickleIterator7ReadIntEPi.exit:         ; preds = %._crit_edge.i.i, %11, %2, %_ZN4base14PickleIterator24GetReadPointerAndAdvanceEim.exit
  %.0 = phi i1 [ true, %_ZN4base14PickleIterator24GetReadPointerAndAdvanceEim.exit ], [ false, %2 ], [ false, %11 ], [ false, %._crit_edge.i.i ]
  ret i1 %.0
}